target datalayout = "e-m:e-p270:32:32-p271:32:32-p272:64:64-i64:64-i128:128-f80:128-n8:16:32:64-S128"
target triple = "x86_64-unknown-linux-gnu"

%struct.QTailQLink = type { ptr, ptr }
%struct.BlockDriverState = type { i32, i8, i8, i8, i8, i8, ptr, ptr, ptr, %struct.anon.0, i8, [4096 x i8], [4096 x i8], [4096 x i8], [16 x i8], ptr, [4096 x i8], %struct.BlockLimits, i32, i32, i32, i32, [32 x i8], %union.anon, %union.anon.1, %union.anon.2, i32, [16 x %struct.anon.3], ptr, %struct.anon.4, ptr, ptr, %struct.anon.5, ptr, ptr, i32, ptr, i64, i64, %struct.QemuMutex, %struct.anon.6, %struct.Stat64, i32, i32, i32, i32, i32, i32, %struct.QemuMutex, %struct.anon.7, %struct.CoQueue, i8, i32, i8, %struct.CoMutex, ptr, ptr }
%struct.anon.0 = type { ptr }
%struct.BlockLimits = type { i32, i64, i32, i64, i32, i32, i32, i64, i32, i64, i64, i32, i8, i32, i32, i32, i32, i32, i32, i32 }
%union.anon = type { %struct.QTailQLink }
%union.anon.1 = type { %struct.QTailQLink }
%union.anon.2 = type { %struct.QTailQLink }
%struct.anon.3 = type { ptr }
%struct.anon.4 = type { ptr }
%struct.anon.5 = type { ptr }
%struct.anon.6 = type { ptr }
%struct.Stat64 = type { i64 }
%struct.QemuMutex = type { %union.pthread_mutex_t, i8 }
%union.pthread_mutex_t = type { %struct.__pthread_mutex_s }
%struct.__pthread_mutex_s = type { i32, i32, i32, i32, i32, i16, i16, %struct.__pthread_internal_list }
%struct.__pthread_internal_list = type { ptr, ptr }
%struct.anon.7 = type { ptr }
%struct.CoQueue = type { %struct.anon.8 }
%struct.anon.8 = type { ptr, ptr }
%struct.CoMutex = type { i32, ptr, %struct.anon.9, %struct.anon.9, i32, i32, ptr }
%struct.anon.9 = type { ptr }
%struct.BdrvChild = type { ptr, ptr, ptr, i32, ptr, i64, i64, i8, i8, %struct.anon.12, %struct.anon.13 }
%struct.anon.12 = type { ptr, ptr }
%struct.anon.13 = type { ptr, ptr }

; Function Attrs: nounwind sspstrong uwtable
define internal zeroext i1 @check_top_bs(ptr noundef %top_bs, ptr noundef %bs) #0 {
entry:
  %retval = alloca i1, align 1
  %top_bs.addr = alloca ptr, align 8
  %bs.addr = alloca ptr, align 8
  %child = alloca ptr, align 8
  store ptr %top_bs, ptr %top_bs.addr, align 8
  store ptr %bs, ptr %bs.addr, align 8
  %0 = load ptr, ptr %top_bs.addr, align 8
  %1 = load ptr, ptr %bs.addr, align 8
  %cmp = icmp eq ptr %0, %1
  br i1 %cmp, label %if.then, label %if.end

if.then:                                          ; preds = %entry
  store i1 true, ptr %retval, align 1
  br label %return

if.end:                                           ; preds = %entry
  %2 = load ptr, ptr %top_bs.addr, align 8
  %children = getelementptr inbounds %struct.BlockDriverState, ptr %2, i32 0, i32 29
  %lh_first = getelementptr inbounds %struct.anon.4, ptr %children, i32 0, i32 0
  %3 = load ptr, ptr %lh_first, align 8
  store ptr %3, ptr %child, align 8
  br label %for.cond

for.cond:                                         ; preds = %for.inc, %if.end
  %4 = load ptr, ptr %child, align 8
  %tobool = icmp ne ptr %4, null
  br i1 %tobool, label %for.body, label %for.end

for.body:                                         ; preds = %for.cond
  %5 = load ptr, ptr %child, align 8
  %bs1 = getelementptr inbounds %struct.BdrvChild, ptr %5, i32 0, i32 0
  %6 = load ptr, ptr %bs1, align 8
  %7 = load ptr, ptr %bs.addr, align 8
  %cmp2 = icmp eq ptr %6, %7
  br i1 %cmp2, label %if.then4, label %lor.lhs.false

lor.lhs.false:                                    ; preds = %for.body
  %8 = load ptr, ptr %child, align 8
  %bs3 = getelementptr inbounds %struct.BdrvChild, ptr %8, i32 0, i32 0
  %9 = load ptr, ptr %bs3, align 8
  %10 = load ptr, ptr %bs.addr, align 8
  %call = call zeroext i1 @check_top_bs(ptr noundef %9, ptr noundef %10)
  br i1 %call, label %if.then4, label %if.end5

if.then4:                                         ; preds = %lor.lhs.false, %for.body
  store i1 true, ptr %retval, align 1
  br label %return

if.end5:                                          ; preds = %lor.lhs.false
  br label %for.inc

for.inc:                                          ; preds = %if.end5
  %11 = load ptr, ptr %child, align 8
  %next = getelementptr inbounds %struct.BdrvChild, ptr %11, i32 0, i32 9
  %le_next = getelementptr inbounds %struct.anon.12, ptr %next, i32 0, i32 0
  %12 = load ptr, ptr %le_next, align 8
  store ptr %12, ptr %child, align 8
  br label %for.cond, !llvm.loop !7

for.end:                                          ; preds = %for.cond
  store i1 false, ptr %retval, align 1
  br label %return

return:                                           ; preds = %for.end, %if.then4, %if.then
  %13 = load i1, ptr %retval, align 1
  ret i1 %13
}