; Function Attrs: nofree nosync nounwind sspstrong memory(read, inaccessiblemem: none) uwtable
define internal fastcc noundef zeroext i1 @check_top_bs(ptr noundef readonly %top_bs, ptr noundef %bs) unnamed_addr #6 {
entry:
  %cmp = icmp eq ptr %top_bs, %bs
  br i1 %cmp, label %return, label %if.end

if.end:                                           ; preds = %entry
  %children = getelementptr inbounds nuw i8, ptr %top_bs, i64 16824
  %child.07 = load ptr, ptr %children, align 8
  %tobool.not8 = icmp eq ptr %child.07, null
  br i1 %tobool.not8, label %return, label %for.body

for.cond:                                         ; preds = %lor.lhs.false
  %next = getelementptr inbounds nuw i8, ptr %child.09, i64 64
  %child.0 = load ptr, ptr %next, align 8
  %tobool.not = icmp eq ptr %child.0, null
  br i1 %tobool.not, label %return, label %for.body, !llvm.loop !7

for.body:                                         ; preds = %if.end, %for.cond
  %child.09 = phi ptr [ %child.0, %for.cond ], [ %child.07, %if.end ]
  %0 = load ptr, ptr %child.09, align 8
  %cmp2 = icmp eq ptr %0, %bs
  br i1 %cmp2, label %return, label %lor.lhs.false

lor.lhs.false:                                    ; preds = %for.body
  %call = tail call fastcc zeroext i1 @check_top_bs(ptr noundef %0, ptr noundef %bs)
  br i1 %call, label %return, label %for.cond

return:                                           ; preds = %lor.lhs.false, %for.body, %for.cond, %if.end, %entry
  %retval.0 = phi i1 [ true, %entry ], [ false, %if.end ], [ true, %lor.lhs.false ], [ true, %for.body ], [ false, %for.cond ]
  ret i1 %retval.0
}